; ModuleID = '44/27.c'
source_filename = "44/27.c"
target datalayout = "e-m:e-p270:32:32-p271:32:32-p272:64:64-i64:64-f80:128-n8:16:32:64-S128"
target triple = "x86_64-pc-linux-gnu"

@.str = private unnamed_addr constant [3 x i8] c"%d\00", align 1
@.str.1 = private unnamed_addr constant [4 x i8] c"%d\0A\00", align 1

; Function Attrs: noinline nounwind uwtable
define dso_local i32 @num(i32 %0) #0 {
  %2 = alloca i32, align 4
  %3 = alloca i32, align 4
  %4 = alloca i32, align 4
  %5 = alloca i32, align 4
  %6 = alloca i32, align 4
  %7 = alloca i32, align 4
  %8 = alloca [100 x i32], align 16
  %9 = alloca i32, align 4
  %10 = alloca i32, align 4
  store i32 %0, i32* %2, align 4
  store i32 0, i32* %7, align 4
  store i32 0, i32* %10, align 4
  %11 = load i32, i32* %2, align 4
  %12 = icmp sgt i32 %11, 0
  br i1 %12, label %13, label %14

13:                                               ; preds = %1
  store i32 1, i32* %10, align 4
  br label %14

14:                                               ; preds = %13, %1
  %15 = load i32, i32* %2, align 4
  %16 = icmp slt i32 %15, 0
  br i1 %16, label %17, label %21

17:                                               ; preds = %14
  store i32 -1, i32* %10, align 4
  %18 = load i32, i32* %2, align 4
  %19 = load i32, i32* %10, align 4
  %20 = mul nsw i32 %18, %19
  store i32 %20, i32* %2, align 4
  br label %21

21:                                               ; preds = %17, %14
  %22 = load i32, i32* %2, align 4
  %23 = sitofp i32 %22 to double
  %24 = call double @log10(double %23) #3
  %25 = fptosi double %24 to i32
  store i32 %25, i32* %5, align 4
  %26 = load i32, i32* %5, align 4
  store i32 %26, i32* %6, align 4
  br label %27

27:                                               ; preds = %54, %21
  %28 = load i32, i32* %6, align 4
  %29 = icmp sge i32 %28, 0
  br i1 %29, label %30, label %57

30:                                               ; preds = %27
  %31 = load i32, i32* %2, align 4
  %32 = sitofp i32 %31 to double
  %33 = load i32, i32* %6, align 4
  %34 = sitofp i32 %33 to double
  %35 = call double @pow(double 1.000000e+01, double %34) #3
  %36 = fdiv double %32, %35
  %37 = fptosi double %36 to i32
  store i32 %37, i32* %4, align 4
  %38 = load i32, i32* %4, align 4
  %39 = load i32, i32* %7, align 4
  %40 = sext i32 %39 to i64
  %41 = getelementptr inbounds [100 x i32], [100 x i32]* %8, i64 0, i64 %40
  store i32 %38, i32* %41, align 4
  %42 = load i32, i32* %7, align 4
  %43 = add nsw i32 %42, 1
  store i32 %43, i32* %7, align 4
  %44 = load i32, i32* %2, align 4
  %45 = sitofp i32 %44 to double
  %46 = load i32, i32* %4, align 4
  %47 = sitofp i32 %46 to double
  %48 = load i32, i32* %6, align 4
  %49 = sitofp i32 %48 to double
  %50 = call double @pow(double 1.000000e+01, double %49) #3
  %51 = fmul double %47, %50
  %52 = fsub double %45, %51
  %53 = fptosi double %52 to i32
  store i32 %53, i32* %2, align 4
  br label %54

54:                                               ; preds = %30
  %55 = load i32, i32* %6, align 4
  %56 = add nsw i32 %55, -1
  store i32 %56, i32* %6, align 4
  br label %27

57:                                               ; preds = %27
  store i32 0, i32* %9, align 4
  store i32 0, i32* %7, align 4
  store i32 0, i32* %4, align 4
  store i32 0, i32* %6, align 4
  br label %58

58:                                               ; preds = %78, %57
  %59 = load i32, i32* %6, align 4
  %60 = load i32, i32* %5, align 4
  %61 = icmp sle i32 %59, %60
  br i1 %61, label %62, label %81

62:                                               ; preds = %58
  %63 = load i32, i32* %9, align 4
  %64 = sitofp i32 %63 to double
  %65 = load i32, i32* %6, align 4
  %66 = sext i32 %65 to i64
  %67 = getelementptr inbounds [100 x i32], [100 x i32]* %8, i64 0, i64 %66
  %68 = load i32, i32* %67, align 4
  %69 = sitofp i32 %68 to double
  %70 = load i32, i32* %4, align 4
  %71 = sitofp i32 %70 to double
  %72 = call double @pow(double 1.000000e+01, double %71) #3
  %73 = fmul double %69, %72
  %74 = fadd double %64, %73
  %75 = fptosi double %74 to i32
  store i32 %75, i32* %9, align 4
  %76 = load i32, i32* %4, align 4
  %77 = add nsw i32 %76, 1
  store i32 %77, i32* %4, align 4
  br label %78

78:                                               ; preds = %62
  %79 = load i32, i32* %6, align 4
  %80 = add nsw i32 %79, 1
  store i32 %80, i32* %6, align 4
  br label %58

81:                                               ; preds = %58
  %82 = load i32, i32* %9, align 4
  %83 = load i32, i32* %10, align 4
  %84 = mul nsw i32 %82, %83
  ret i32 %84
}

; Function Attrs: nounwind
declare dso_local double @log10(double) #1

; Function Attrs: nounwind
declare dso_local double @pow(double, double) #1

; Function Attrs: noinline nounwind uwtable
define dso_local i32 @main() #0 {
  %1 = alloca i32, align 4
  %2 = alloca i32, align 4
  %3 = alloca i32, align 4
  store i32 0, i32* %1, align 4
  store i32 0, i32* %2, align 4
  br label %4

4:                                                ; preds = %11, %0
  %5 = call i32 (i8*, ...) @__isoc99_scanf(i8* getelementptr inbounds ([3 x i8], [3 x i8]* @.str, i64 0, i64 0), i32* %3)
  %6 = icmp eq i32 %5, 1
  br i1 %6, label %7, label %14

7:                                                ; preds = %4
  %8 = load i32, i32* %3, align 4
  %9 = call i32 @num(i32 %8)
  %10 = call i32 (i8*, ...) @printf(i8* getelementptr inbounds ([4 x i8], [4 x i8]* @.str.1, i64 0, i64 0), i32 %9)
  br label %11

11:                                               ; preds = %7
  %12 = load i32, i32* %2, align 4
  %13 = add nsw i32 %12, 1
  store i32 %13, i32* %2, align 4
  br label %4

14:                                               ; preds = %4
  ret i32 0
}

declare dso_local i32 @__isoc99_scanf(i8*, ...) #2

declare dso_local i32 @printf(i8*, ...) #2


!llvm.module.flags = !{!0}
!llvm.ident = !{!1}

!0 = !{i32 1, !"wchar_size", i32 4}
!1 = !{!"clang version 10.0.0-4ubuntu1 "}
